target datalayout = "e-m:e-p270:32:32-p271:32:32-p272:64:64-i64:64-i128:128-f80:128-n8:16:32:64-S128"
target triple = "x86_64-pc-linux-gnu"

%struct.UCMapping = type { i32, %union.anon, i8, i8, i8, i8 }
%union.anon = type { i32 }
%struct.UCMTable = type { ptr, i32, i32, ptr, i32, i32, ptr, i32, i32, ptr, i8, i8, i8 }

; Function Attrs: mustprogress uwtable
define void @ucm_printMapping(ptr noundef %0, ptr noundef %1, ptr noundef %2) #0 {
  %4 = alloca ptr, align 8
  %5 = alloca ptr, align 8
  %6 = alloca ptr, align 8
  store ptr %0, ptr %4, align 8, !tbaa !3
  store ptr %1, ptr %5, align 8, !tbaa !8
  store ptr %2, ptr %6, align 8, !tbaa !10
  %7 = load ptr, ptr %5, align 8, !tbaa !8
  %8 = load ptr, ptr %5, align 8, !tbaa !8
  %9 = getelementptr inbounds nuw %struct.UCMapping, ptr %8, i32 0, i32 2
  %10 = load i8, ptr %9, align 4, !tbaa !12
  %11 = sext i8 %10 to i32
  %12 = icmp eq i32 %11, 1
  br i1 %12, label %13, label %16

13:                                               ; preds = %3
  %14 = load ptr, ptr %5, align 8, !tbaa !8
  %15 = getelementptr inbounds nuw %struct.UCMapping, ptr %14, i32 0, i32 0
  br label %25

16:                                               ; preds = %3
  %17 = load ptr, ptr %4, align 8, !tbaa !3
  %18 = getelementptr inbounds nuw %struct.UCMTable, ptr %17, i32 0, i32 3
  %19 = load ptr, ptr %18, align 8, !tbaa !15
  %20 = load ptr, ptr %5, align 8, !tbaa !8
  %21 = getelementptr inbounds nuw %struct.UCMapping, ptr %20, i32 0, i32 0
  %22 = load i32, ptr %21, align 4, !tbaa !19
  %23 = sext i32 %22 to i64
  %24 = getelementptr inbounds i32, ptr %19, i64 %23
  br label %25

25:                                               ; preds = %16, %13
  %26 = phi ptr [ %15, %13 ], [ %24, %16 ]
  %27 = load ptr, ptr %5, align 8, !tbaa !8
  %28 = getelementptr inbounds nuw %struct.UCMapping, ptr %27, i32 0, i32 3
  %29 = load i8, ptr %28, align 1, !tbaa !20
  %30 = sext i8 %29 to i32
  %31 = icmp sle i32 %30, 4
  br i1 %31, label %32, label %36

32:                                               ; preds = %25
  %33 = load ptr, ptr %5, align 8, !tbaa !8
  %34 = getelementptr inbounds nuw %struct.UCMapping, ptr %33, i32 0, i32 1
  %35 = getelementptr inbounds [4 x i8], ptr %34, i64 0, i64 0
  br label %45

36:                                               ; preds = %25
  %37 = load ptr, ptr %4, align 8, !tbaa !3
  %38 = getelementptr inbounds nuw %struct.UCMTable, ptr %37, i32 0, i32 6
  %39 = load ptr, ptr %38, align 8, !tbaa !21
  %40 = load ptr, ptr %5, align 8, !tbaa !8
  %41 = getelementptr inbounds nuw %struct.UCMapping, ptr %40, i32 0, i32 1
  %42 = load i32, ptr %41, align 4, !tbaa !22
  %43 = zext i32 %42 to i64
  %44 = getelementptr inbounds nuw i8, ptr %39, i64 %43
  br label %45

45:                                               ; preds = %36, %32
  %46 = phi ptr [ %35, %32 ], [ %44, %36 ]
  %47 = load ptr, ptr %6, align 8, !tbaa !10
  call void @_ZL12printMappingP9UCMappingPiPhP8_IO_FILE(ptr noundef %7, ptr noundef %26, ptr noundef %46, ptr noundef %47)
  ret void
}