; Function Attrs: mustprogress nofree nounwind uwtable
define void @ucm_printMapping(ptr noundef readonly captures(none) %0, ptr noundef readonly captures(none) %1, ptr noundef captures(none) %2) local_unnamed_addr #0 {
  %4 = getelementptr inbounds nuw i8, ptr %1, i64 8
  %5 = load i8, ptr %4, align 4, !tbaa !3
  %6 = icmp eq i8 %5, 1
  br i1 %6, label %13, label %7

7:                                                ; preds = %3
  %8 = getelementptr inbounds nuw i8, ptr %0, i64 16
  %9 = load ptr, ptr %8, align 8, !tbaa !8
  %10 = load i32, ptr %1, align 4, !tbaa !14
  %11 = sext i32 %10 to i64
  %12 = getelementptr inbounds i32, ptr %9, i64 %11
  br label %13

13:                                               ; preds = %3, %7
  %14 = phi ptr [ %12, %7 ], [ %1, %3 ]
  %15 = getelementptr inbounds nuw i8, ptr %1, i64 9
  %16 = load i8, ptr %15, align 1, !tbaa !15
  %17 = icmp slt i8 %16, 5
  br i1 %17, label %18, label %20

18:                                               ; preds = %13
  %19 = getelementptr inbounds nuw i8, ptr %1, i64 4
  br label %27

20:                                               ; preds = %13
  %21 = getelementptr inbounds nuw i8, ptr %0, i64 32
  %22 = load ptr, ptr %21, align 8, !tbaa !16
  %23 = getelementptr inbounds nuw i8, ptr %1, i64 4
  %24 = load i32, ptr %23, align 4, !tbaa !17
  %25 = zext i32 %24 to i64
  %26 = getelementptr inbounds nuw i8, ptr %22, i64 %25
  br label %27

27:                                               ; preds = %20, %18
  %28 = phi ptr [ %19, %18 ], [ %26, %20 ]
  tail call fastcc void @_ZL12printMappingP9UCMappingPiPhP8_IO_FILE(ptr noundef nonnull %1, ptr noundef %14, ptr noundef %28, ptr noundef %2)
  ret void
}